; ModuleID = '27/1345.c'
source_filename = "27/1345.c"
target datalayout = "e-m:e-p270:32:32-p271:32:32-p272:64:64-i64:64-f80:128-n8:16:32:64-S128"
target triple = "x86_64-pc-linux-gnu"

@.str = private unnamed_addr constant [3 x i8] c"%d\00", align 1
@.str.1 = private unnamed_addr constant [10 x i8] c"%lf%lf%lf\00", align 1
@.str.2 = private unnamed_addr constant [12 x i8] c"x1=x2=%.5f\0A\00", align 1
@.str.3 = private unnamed_addr constant [17 x i8] c"x1=%.5f;x2=%.5f\0A\00", align 1
@.str.4 = private unnamed_addr constant [29 x i8] c"x1=%.5f+%.5fi;x2=%.5f-%.5fi\0A\00", align 1

; Function Attrs: noinline nounwind uwtable
define dso_local i32 @main(i32 %0, i8** %1) #0 {
  %3 = alloca i32, align 4
  %4 = alloca i32, align 4
  %5 = alloca i8**, align 8
  %6 = alloca i32, align 4
  %7 = alloca i32, align 4
  %8 = alloca double, align 8
  %9 = alloca double, align 8
  %10 = alloca double, align 8
  %11 = alloca double, align 8
  %12 = alloca double, align 8
  %13 = alloca double, align 8
  store i32 0, i32* %3, align 4
  store i32 %0, i32* %4, align 4
  store i8** %1, i8*** %5, align 8
  %14 = call i32 (i8*, ...) @__isoc99_scanf(i8* getelementptr inbounds ([3 x i8], [3 x i8]* @.str, i64 0, i64 0), i32* %6)
  store i32 1, i32* %7, align 4
  br label %15

15:                                               ; preds = %100, %2
  %16 = load i32, i32* %7, align 4
  %17 = load i32, i32* %6, align 4
  %18 = icmp sle i32 %16, %17
  br i1 %18, label %19, label %103

19:                                               ; preds = %15
  %20 = call i32 (i8*, ...) @__isoc99_scanf(i8* getelementptr inbounds ([10 x i8], [10 x i8]* @.str.1, i64 0, i64 0), double* %8, double* %9, double* %10)
  %21 = load double, double* %8, align 8
  %22 = fcmp une double %21, 0.000000e+00
  br i1 %22, label %23, label %99

23:                                               ; preds = %19
  %24 = load double, double* %9, align 8
  %25 = load double, double* %9, align 8
  %26 = fmul double %24, %25
  %27 = load double, double* %8, align 8
  %28 = fmul double 4.000000e+00, %27
  %29 = load double, double* %10, align 8
  %30 = fmul double %28, %29
  %31 = fsub double %26, %30
  %32 = fcmp oge double %31, 0.000000e+00
  br i1 %32, label %33, label %75

33:                                               ; preds = %23
  %34 = load double, double* %9, align 8
  %35 = fneg double %34
  %36 = load double, double* %9, align 8
  %37 = load double, double* %9, align 8
  %38 = fmul double %36, %37
  %39 = load double, double* %8, align 8
  %40 = fmul double 4.000000e+00, %39
  %41 = load double, double* %10, align 8
  %42 = fmul double %40, %41
  %43 = fsub double %38, %42
  %44 = call double @sqrt(double %43) #3
  %45 = fadd double %35, %44
  %46 = load double, double* %8, align 8
  %47 = fmul double 2.000000e+00, %46
  %48 = fdiv double %45, %47
  store double %48, double* %11, align 8
  %49 = load double, double* %9, align 8
  %50 = fneg double %49
  %51 = load double, double* %9, align 8
  %52 = load double, double* %9, align 8
  %53 = fmul double %51, %52
  %54 = load double, double* %8, align 8
  %55 = fmul double 4.000000e+00, %54
  %56 = load double, double* %10, align 8
  %57 = fmul double %55, %56
  %58 = fsub double %53, %57
  %59 = call double @sqrt(double %58) #3
  %60 = fsub double %50, %59
  %61 = load double, double* %8, align 8
  %62 = fmul double 2.000000e+00, %61
  %63 = fdiv double %60, %62
  store double %63, double* %12, align 8
  %64 = load double, double* %11, align 8
  %65 = load double, double* %12, align 8
  %66 = fcmp oeq double %64, %65
  br i1 %66, label %67, label %70

67:                                               ; preds = %33
  %68 = load double, double* %11, align 8
  %69 = call i32 (i8*, ...) @printf(i8* getelementptr inbounds ([12 x i8], [12 x i8]* @.str.2, i64 0, i64 0), double %68)
  br label %74

70:                                               ; preds = %33
  %71 = load double, double* %11, align 8
  %72 = load double, double* %12, align 8
  %73 = call i32 (i8*, ...) @printf(i8* getelementptr inbounds ([17 x i8], [17 x i8]* @.str.3, i64 0, i64 0), double %71, double %72)
  br label %74

74:                                               ; preds = %70, %67
  br label %98

75:                                               ; preds = %23
  %76 = load double, double* %8, align 8
  %77 = fmul double 4.000000e+00, %76
  %78 = load double, double* %10, align 8
  %79 = fmul double %77, %78
  %80 = load double, double* %9, align 8
  %81 = load double, double* %9, align 8
  %82 = fmul double %80, %81
  %83 = fsub double %79, %82
  %84 = call double @sqrt(double %83) #3
  %85 = load double, double* %8, align 8
  %86 = fmul double 2.000000e+00, %85
  %87 = fdiv double %84, %86
  store double %87, double* %13, align 8
  %88 = load double, double* %9, align 8
  %89 = fneg double %88
  %90 = load double, double* %8, align 8
  %91 = fmul double 2.000000e+00, %90
  %92 = fdiv double %89, %91
  store double %92, double* %11, align 8
  %93 = load double, double* %11, align 8
  %94 = load double, double* %13, align 8
  %95 = load double, double* %11, align 8
  %96 = load double, double* %13, align 8
  %97 = call i32 (i8*, ...) @printf(i8* getelementptr inbounds ([29 x i8], [29 x i8]* @.str.4, i64 0, i64 0), double %93, double %94, double %95, double %96)
  br label %98

98:                                               ; preds = %75, %74
  br label %99

99:                                               ; preds = %98, %19
  br label %100

100:                                              ; preds = %99
  %101 = load i32, i32* %7, align 4
  %102 = add nsw i32 %101, 1
  store i32 %102, i32* %7, align 4
  br label %15

103:                                              ; preds = %15
  ret i32 0
}

declare dso_local i32 @__isoc99_scanf(i8*, ...) #1

; Function Attrs: nounwind
declare dso_local double @sqrt(double) #2

declare dso_local i32 @printf(i8*, ...) #1


!llvm.module.flags = !{!0}
!llvm.ident = !{!1}

!0 = !{i32 1, !"wchar_size", i32 4}
!1 = !{!"clang version 10.0.0-4ubuntu1 "}
